; Function Attrs: nounwind uwtable
define hidden void @zif_ob_list_handlers(ptr noundef readonly captures(none) %0, ptr noundef %1) local_unnamed_addr #0 {
  %3 = getelementptr inbounds nuw i8, ptr %0, i64 44
  %4 = load i32, ptr %3, align 4, !tbaa !8
  %.not = icmp eq i32 %4, 0
  br i1 %.not, label %.critedge, label %5, !prof !113

5:                                                ; preds = %2
  tail call void @zend_wrong_parameters_none_error() #22
  %6 = load ptr, ptr getelementptr inbounds nuw (i8, ptr @executor_globals, i64 960), align 8, !tbaa !112
  %7 = icmp ne ptr %6, null
  tail call void @llvm.assume(i1 %7)
  br label %12

.critedge:                                        ; preds = %2
  %8 = tail call ptr @_zend_new_array_0() #22
  store ptr %8, ptr %1, align 8, !tbaa !8
  %9 = getelementptr inbounds nuw i8, ptr %1, i64 8
  store i32 775, ptr %9, align 8, !tbaa !8
  %10 = load ptr, ptr getelementptr inbounds nuw (i8, ptr @output_globals, i64 24), align 8, !tbaa !46
  %.not6 = icmp eq ptr %10, null
  br i1 %.not6, label %12, label %11

11:                                               ; preds = %.critedge
  tail call void @zend_stack_apply_with_argument(ptr noundef nonnull @output_globals, i32 noundef 1, ptr noundef nonnull @php_output_stack_apply_list, ptr noundef nonnull %1) #22
  br label %12

12:                                               ; preds = %.critedge, %11, %5
  ret void
}